CCS PCM C Compiler, Version 3.249, 28193               29-nov.-23 09:13

               Filename: C:\Users\josse\Documents\7 semestre\ChavaCano\pro\programa6.lst

               ROM used: 159 words (2%)
                         Largest free fragment is 2048
               RAM used: 8 (5%) at main() level
                         8 (5%) worst case
               Stack:    1 locations

*
0000:  MOVLW  00
0001:  MOVWF  0A
0002:  GOTO   027
0003:  NOP
.................... #include <16F877A.h> 
.................... //////// Standard Header file for the PIC16F877A device //////////////// 
.................... #device PIC16F877A 
.................... #list 
....................  
.................... #fuses XT,NOWDT,NOPROTECT,NOBROWNOUT,NOLVP 
.................... #use delay(clock=20000000) 
0012:  MOVLW  22
0013:  MOVWF  04
0014:  MOVF   00,W
0015:  BTFSC  03.2
0016:  GOTO   024
0017:  MOVLW  06
0018:  MOVWF  78
0019:  CLRF   77
001A:  DECFSZ 77,F
001B:  GOTO   01A
001C:  DECFSZ 78,F
001D:  GOTO   019
001E:  MOVLW  7B
001F:  MOVWF  77
0020:  DECFSZ 77,F
0021:  GOTO   020
0022:  DECFSZ 00,F
0023:  GOTO   017
0024:  BCF    0A.3
0025:  BCF    0A.4
0026:  GOTO   087 (RETURN)
....................  
.................... int cont = 1; 
*
0031:  MOVLW  01
0032:  BCF    03.5
0033:  MOVWF  20
....................  
.................... const int U[] = {0x3F, 0x06, 0x5B, 0x4F, 0x66, 0x6D, 0x7D, 0x07, 0x7F, 0x6F}; 
....................  
.................... void main() { 
*
0027:  CLRF   04
0028:  MOVLW  1F
0029:  ANDWF  03,F
002A:  BSF    03.5
002B:  BSF    1F.0
002C:  BSF    1F.1
002D:  BSF    1F.2
002E:  BCF    1F.3
002F:  MOVLW  07
0030:  MOVWF  1C
....................    setup_adc_ports(NO_ANALOGS); 
*
0036:  BSF    03.5
0037:  BSF    1F.0
0038:  BSF    1F.1
0039:  BSF    1F.2
003A:  BCF    1F.3
....................    setup_adc(ADC_OFF); 
003B:  BCF    03.5
003C:  BCF    1F.0
....................    setup_psp(PSP_DISABLED); 
003D:  BSF    03.5
003E:  BCF    09.4
....................    setup_timer_0(RTCC_INTERNAL|RTCC_DIV_1); 
003F:  MOVF   01,W
0040:  ANDLW  C7
0041:  IORLW  08
0042:  MOVWF  01
....................    setup_timer_1(T1_DISABLED); 
0043:  BCF    03.5
0044:  CLRF   10
....................    setup_timer_2(T2_DISABLED,0,1); 
0045:  MOVLW  00
0046:  MOVWF  78
0047:  MOVWF  12
0048:  MOVLW  00
0049:  BSF    03.5
004A:  MOVWF  12
....................    setup_comparator(NC_NC_NC_NC); 
004B:  MOVLW  07
004C:  MOVWF  1C
004D:  MOVF   05,W
004E:  MOVLW  10
004F:  MOVWF  77
0050:  DECFSZ 77,F
0051:  GOTO   050
0052:  NOP
0053:  MOVF   1C,W
0054:  BCF    03.5
0055:  BCF    0D.6
....................    setup_vref(FALSE); 
0056:  BSF    03.5
0057:  CLRF   1D
....................     
....................    set_tris_a(0xFF); // Configura todos los pines de PORTA como entrada 
0058:  MOVLW  FF
0059:  MOVWF  05
....................    set_tris_b(0xFF); // Configura todos los pines de PORTB como entrada 
005A:  MOVWF  06
....................    set_tris_c(0x00); // Configura todos los pines de PORTC como salida 
*
0034:  MOVLW  FF
0035:  MOVWF  21
*
005B:  MOVLW  00
005C:  MOVWF  07
005D:  BCF    03.5
005E:  MOVWF  21
....................    set_tris_d(0x00); // Configura todos los pines de PORTD como salida 
005F:  BSF    03.5
0060:  MOVWF  08
....................    set_tris_e(0x00); // Configura todos los pines de PORTE como salida 
0061:  BCF    09.0
0062:  BCF    09.1
0063:  BCF    09.2
....................  
....................    output_a(0x00); 
0064:  CLRF   05
0065:  BCF    03.5
0066:  CLRF   05
....................    output_b(0x00); 
0067:  BSF    03.5
0068:  CLRF   06
0069:  BCF    03.5
006A:  CLRF   06
....................    output_c(0x3F); // Inicializa PORTC con el valor del primer elemento de U 
006B:  MOVWF  21
006C:  BSF    03.5
006D:  CLRF   07
006E:  MOVLW  3F
006F:  BCF    03.5
0070:  MOVWF  07
....................    output_d(0x00); 
0071:  BSF    03.5
0072:  CLRF   08
0073:  BCF    03.5
0074:  CLRF   08
....................    output_e(0x00); 
0075:  BSF    03.5
0076:  BCF    09.0
0077:  BCF    09.1
0078:  BCF    09.2
0079:  BCF    03.5
007A:  CLRF   09
....................  
....................    while(1) { 
....................       if(input(PIN_A3) == 1) { 
007B:  BSF    03.5
007C:  BSF    05.3
007D:  MOVLW  00
007E:  BCF    03.5
007F:  BTFSC  05.3
0080:  MOVLW  01
0081:  SUBLW  01
0082:  BTFSS  03.2
0083:  GOTO   09D
....................          delay_ms(25); 
0084:  MOVLW  19
0085:  MOVWF  22
0086:  GOTO   012
....................          if(input(PIN_A3)) { 
0087:  BSF    03.5
0088:  BSF    05.3
0089:  BCF    03.5
008A:  BTFSS  05.3
008B:  GOTO   09D
....................             output_c(U[cont]); 
008C:  MOVF   20,W
008D:  CALL   004
008E:  MOVWF  22
008F:  MOVLW  00
0090:  MOVWF  21
0091:  BSF    03.5
0092:  CLRF   07
0093:  BCF    03.5
0094:  MOVF   22,W
0095:  MOVWF  07
....................             cont = cont + 1; 
0096:  MOVLW  01
0097:  ADDWF  20,F
....................             if(cont > 9) { 
0098:  MOVF   20,W
0099:  SUBLW  09
009A:  BTFSC  03.0
009B:  GOTO   09D
....................                cont = 0; 
009C:  CLRF   20
....................             } 
....................          } 
....................       } 
....................    } 
009D:  GOTO   07B
.................... } 
009E:  SLEEP

Configuration Fuses:
   Word  1: 3F39   XT NOWDT NOPUT NODEBUG NOPROTECT NOBROWNOUT NOLVP NOCPD NOWRT
